; ModuleID = '8/139.c'
source_filename = "8/139.c"
target datalayout = "e-m:e-p270:32:32-p271:32:32-p272:64:64-i64:64-f80:128-n8:16:32:64-S128"
target triple = "x86_64-pc-linux-gnu"

@.str = private unnamed_addr constant [6 x i8] c"%d %d\00", align 1
@.str.1 = private unnamed_addr constant [3 x i8] c"%d\00", align 1
@.str.2 = private unnamed_addr constant [4 x i8] c"%d \00", align 1
@.str.3 = private unnamed_addr constant [4 x i8] c"%d\0A\00", align 1

; Function Attrs: noinline nounwind uwtable
define dso_local i32 @main() #0 {
  %1 = alloca i32, align 4
  %2 = alloca i32, align 4
  %3 = alloca i32, align 4
  %4 = alloca i32, align 4
  %5 = alloca i32, align 4
  %6 = alloca i32, align 4
  %7 = alloca [2 x [1000 x i32]], align 16
  store i32 0, i32* %1, align 4
  %8 = call i32 (i8*, ...) @__isoc99_scanf(i8* getelementptr inbounds ([6 x i8], [6 x i8]* @.str, i64 0, i64 0), i32* %2, i32* %3)
  store i32 0, i32* %4, align 4
  br label %9

9:                                                ; preds = %19, %0
  %10 = load i32, i32* %4, align 4
  %11 = load i32, i32* %2, align 4
  %12 = icmp slt i32 %10, %11
  br i1 %12, label %13, label %22

13:                                               ; preds = %9
  %14 = getelementptr inbounds [2 x [1000 x i32]], [2 x [1000 x i32]]* %7, i64 0, i64 0
  %15 = load i32, i32* %4, align 4
  %16 = sext i32 %15 to i64
  %17 = getelementptr inbounds [1000 x i32], [1000 x i32]* %14, i64 0, i64 %16
  %18 = call i32 (i8*, ...) @__isoc99_scanf(i8* getelementptr inbounds ([3 x i8], [3 x i8]* @.str.1, i64 0, i64 0), i32* %17)
  br label %19

19:                                               ; preds = %13
  %20 = load i32, i32* %4, align 4
  %21 = add nsw i32 %20, 1
  store i32 %21, i32* %4, align 4
  br label %9

22:                                               ; preds = %9
  store i32 0, i32* %4, align 4
  br label %23

23:                                               ; preds = %33, %22
  %24 = load i32, i32* %4, align 4
  %25 = load i32, i32* %3, align 4
  %26 = icmp slt i32 %24, %25
  br i1 %26, label %27, label %36

27:                                               ; preds = %23
  %28 = getelementptr inbounds [2 x [1000 x i32]], [2 x [1000 x i32]]* %7, i64 0, i64 1
  %29 = load i32, i32* %4, align 4
  %30 = sext i32 %29 to i64
  %31 = getelementptr inbounds [1000 x i32], [1000 x i32]* %28, i64 0, i64 %30
  %32 = call i32 (i8*, ...) @__isoc99_scanf(i8* getelementptr inbounds ([3 x i8], [3 x i8]* @.str.1, i64 0, i64 0), i32* %31)
  br label %33

33:                                               ; preds = %27
  %34 = load i32, i32* %4, align 4
  %35 = add nsw i32 %34, 1
  store i32 %35, i32* %4, align 4
  br label %23

36:                                               ; preds = %23
  store i32 0, i32* %6, align 4
  br label %37

37:                                               ; preds = %90, %36
  %38 = load i32, i32* %6, align 4
  %39 = load i32, i32* %2, align 4
  %40 = sub nsw i32 %39, 1
  %41 = icmp slt i32 %38, %40
  br i1 %41, label %42, label %93

42:                                               ; preds = %37
  store i32 0, i32* %4, align 4
  br label %43

43:                                               ; preds = %86, %42
  %44 = load i32, i32* %4, align 4
  %45 = load i32, i32* %2, align 4
  %46 = sub nsw i32 %45, 1
  %47 = load i32, i32* %6, align 4
  %48 = sub nsw i32 %46, %47
  %49 = icmp slt i32 %44, %48
  br i1 %49, label %50, label %89

50:                                               ; preds = %43
  %51 = getelementptr inbounds [2 x [1000 x i32]], [2 x [1000 x i32]]* %7, i64 0, i64 0
  %52 = load i32, i32* %4, align 4
  %53 = sext i32 %52 to i64
  %54 = getelementptr inbounds [1000 x i32], [1000 x i32]* %51, i64 0, i64 %53
  %55 = load i32, i32* %54, align 4
  %56 = getelementptr inbounds [2 x [1000 x i32]], [2 x [1000 x i32]]* %7, i64 0, i64 0
  %57 = load i32, i32* %4, align 4
  %58 = add nsw i32 %57, 1
  %59 = sext i32 %58 to i64
  %60 = getelementptr inbounds [1000 x i32], [1000 x i32]* %56, i64 0, i64 %59
  %61 = load i32, i32* %60, align 4
  %62 = icmp sgt i32 %55, %61
  br i1 %62, label %63, label %85

63:                                               ; preds = %50
  %64 = getelementptr inbounds [2 x [1000 x i32]], [2 x [1000 x i32]]* %7, i64 0, i64 0
  %65 = load i32, i32* %4, align 4
  %66 = sext i32 %65 to i64
  %67 = getelementptr inbounds [1000 x i32], [1000 x i32]* %64, i64 0, i64 %66
  %68 = load i32, i32* %67, align 4
  store i32 %68, i32* %5, align 4
  %69 = getelementptr inbounds [2 x [1000 x i32]], [2 x [1000 x i32]]* %7, i64 0, i64 0
  %70 = load i32, i32* %4, align 4
  %71 = add nsw i32 %70, 1
  %72 = sext i32 %71 to i64
  %73 = getelementptr inbounds [1000 x i32], [1000 x i32]* %69, i64 0, i64 %72
  %74 = load i32, i32* %73, align 4
  %75 = getelementptr inbounds [2 x [1000 x i32]], [2 x [1000 x i32]]* %7, i64 0, i64 0
  %76 = load i32, i32* %4, align 4
  %77 = sext i32 %76 to i64
  %78 = getelementptr inbounds [1000 x i32], [1000 x i32]* %75, i64 0, i64 %77
  store i32 %74, i32* %78, align 4
  %79 = load i32, i32* %5, align 4
  %80 = getelementptr inbounds [2 x [1000 x i32]], [2 x [1000 x i32]]* %7, i64 0, i64 0
  %81 = load i32, i32* %4, align 4
  %82 = add nsw i32 %81, 1
  %83 = sext i32 %82 to i64
  %84 = getelementptr inbounds [1000 x i32], [1000 x i32]* %80, i64 0, i64 %83
  store i32 %79, i32* %84, align 4
  br label %85

85:                                               ; preds = %63, %50
  br label %86

86:                                               ; preds = %85
  %87 = load i32, i32* %4, align 4
  %88 = add nsw i32 %87, 1
  store i32 %88, i32* %4, align 4
  br label %43

89:                                               ; preds = %43
  br label %90

90:                                               ; preds = %89
  %91 = load i32, i32* %6, align 4
  %92 = add nsw i32 %91, 1
  store i32 %92, i32* %6, align 4
  br label %37

93:                                               ; preds = %37
  store i32 0, i32* %6, align 4
  br label %94

94:                                               ; preds = %147, %93
  %95 = load i32, i32* %6, align 4
  %96 = load i32, i32* %3, align 4
  %97 = sub nsw i32 %96, 1
  %98 = icmp slt i32 %95, %97
  br i1 %98, label %99, label %150

99:                                               ; preds = %94
  store i32 0, i32* %4, align 4
  br label %100

100:                                              ; preds = %143, %99
  %101 = load i32, i32* %4, align 4
  %102 = load i32, i32* %3, align 4
  %103 = sub nsw i32 %102, 1
  %104 = load i32, i32* %6, align 4
  %105 = sub nsw i32 %103, %104
  %106 = icmp slt i32 %101, %105
  br i1 %106, label %107, label %146

107:                                              ; preds = %100
  %108 = getelementptr inbounds [2 x [1000 x i32]], [2 x [1000 x i32]]* %7, i64 0, i64 1
  %109 = load i32, i32* %4, align 4
  %110 = sext i32 %109 to i64
  %111 = getelementptr inbounds [1000 x i32], [1000 x i32]* %108, i64 0, i64 %110
  %112 = load i32, i32* %111, align 4
  %113 = getelementptr inbounds [2 x [1000 x i32]], [2 x [1000 x i32]]* %7, i64 0, i64 1
  %114 = load i32, i32* %4, align 4
  %115 = add nsw i32 %114, 1
  %116 = sext i32 %115 to i64
  %117 = getelementptr inbounds [1000 x i32], [1000 x i32]* %113, i64 0, i64 %116
  %118 = load i32, i32* %117, align 4
  %119 = icmp sgt i32 %112, %118
  br i1 %119, label %120, label %142

120:                                              ; preds = %107
  %121 = getelementptr inbounds [2 x [1000 x i32]], [2 x [1000 x i32]]* %7, i64 0, i64 1
  %122 = load i32, i32* %4, align 4
  %123 = sext i32 %122 to i64
  %124 = getelementptr inbounds [1000 x i32], [1000 x i32]* %121, i64 0, i64 %123
  %125 = load i32, i32* %124, align 4
  store i32 %125, i32* %5, align 4
  %126 = getelementptr inbounds [2 x [1000 x i32]], [2 x [1000 x i32]]* %7, i64 0, i64 1
  %127 = load i32, i32* %4, align 4
  %128 = add nsw i32 %127, 1
  %129 = sext i32 %128 to i64
  %130 = getelementptr inbounds [1000 x i32], [1000 x i32]* %126, i64 0, i64 %129
  %131 = load i32, i32* %130, align 4
  %132 = getelementptr inbounds [2 x [1000 x i32]], [2 x [1000 x i32]]* %7, i64 0, i64 1
  %133 = load i32, i32* %4, align 4
  %134 = sext i32 %133 to i64
  %135 = getelementptr inbounds [1000 x i32], [1000 x i32]* %132, i64 0, i64 %134
  store i32 %131, i32* %135, align 4
  %136 = load i32, i32* %5, align 4
  %137 = getelementptr inbounds [2 x [1000 x i32]], [2 x [1000 x i32]]* %7, i64 0, i64 1
  %138 = load i32, i32* %4, align 4
  %139 = add nsw i32 %138, 1
  %140 = sext i32 %139 to i64
  %141 = getelementptr inbounds [1000 x i32], [1000 x i32]* %137, i64 0, i64 %140
  store i32 %136, i32* %141, align 4
  br label %142

142:                                              ; preds = %120, %107
  br label %143

143:                                              ; preds = %142
  %144 = load i32, i32* %4, align 4
  %145 = add nsw i32 %144, 1
  store i32 %145, i32* %4, align 4
  br label %100

146:                                              ; preds = %100
  br label %147

147:                                              ; preds = %146
  %148 = load i32, i32* %6, align 4
  %149 = add nsw i32 %148, 1
  store i32 %149, i32* %6, align 4
  br label %94

150:                                              ; preds = %94
  store i32 0, i32* %4, align 4
  br label %151

151:                                              ; preds = %162, %150
  %152 = load i32, i32* %4, align 4
  %153 = load i32, i32* %2, align 4
  %154 = icmp slt i32 %152, %153
  br i1 %154, label %155, label %165

155:                                              ; preds = %151
  %156 = getelementptr inbounds [2 x [1000 x i32]], [2 x [1000 x i32]]* %7, i64 0, i64 0
  %157 = load i32, i32* %4, align 4
  %158 = sext i32 %157 to i64
  %159 = getelementptr inbounds [1000 x i32], [1000 x i32]* %156, i64 0, i64 %158
  %160 = load i32, i32* %159, align 4
  %161 = call i32 (i8*, ...) @printf(i8* getelementptr inbounds ([4 x i8], [4 x i8]* @.str.2, i64 0, i64 0), i32 %160)
  br label %162

162:                                              ; preds = %155
  %163 = load i32, i32* %4, align 4
  %164 = add nsw i32 %163, 1
  store i32 %164, i32* %4, align 4
  br label %151

165:                                              ; preds = %151
  store i32 0, i32* %4, align 4
  br label %166

166:                                              ; preds = %178, %165
  %167 = load i32, i32* %4, align 4
  %168 = load i32, i32* %3, align 4
  %169 = sub nsw i32 %168, 1
  %170 = icmp slt i32 %167, %169
  br i1 %170, label %171, label %181

171:                                              ; preds = %166
  %172 = getelementptr inbounds [2 x [1000 x i32]], [2 x [1000 x i32]]* %7, i64 0, i64 1
  %173 = load i32, i32* %4, align 4
  %174 = sext i32 %173 to i64
  %175 = getelementptr inbounds [1000 x i32], [1000 x i32]* %172, i64 0, i64 %174
  %176 = load i32, i32* %175, align 4
  %177 = call i32 (i8*, ...) @printf(i8* getelementptr inbounds ([4 x i8], [4 x i8]* @.str.2, i64 0, i64 0), i32 %176)
  br label %178

178:                                              ; preds = %171
  %179 = load i32, i32* %4, align 4
  %180 = add nsw i32 %179, 1
  store i32 %180, i32* %4, align 4
  br label %166

181:                                              ; preds = %166
  %182 = getelementptr inbounds [2 x [1000 x i32]], [2 x [1000 x i32]]* %7, i64 0, i64 1
  %183 = load i32, i32* %3, align 4
  %184 = sub nsw i32 %183, 1
  %185 = sext i32 %184 to i64
  %186 = getelementptr inbounds [1000 x i32], [1000 x i32]* %182, i64 0, i64 %185
  %187 = load i32, i32* %186, align 4
  %188 = call i32 (i8*, ...) @printf(i8* getelementptr inbounds ([4 x i8], [4 x i8]* @.str.3, i64 0, i64 0), i32 %187)
  %189 = load i32, i32* %1, align 4
  ret i32 %189
}

declare dso_local i32 @__isoc99_scanf(i8*, ...) #1

declare dso_local i32 @printf(i8*, ...) #1


!llvm.module.flags = !{!0}
!llvm.ident = !{!1}

!0 = !{i32 1, !"wchar_size", i32 4}
!1 = !{!"clang version 10.0.0-4ubuntu1 "}
